target datalayout = "e-m:e-p270:32:32-p271:32:32-p272:64:64-i64:64-i128:128-f80:128-n8:16:32:64-S128"
target triple = "x86_64-pc-linux-gnu"

%struct.AVFilterContext = type { ptr, ptr, ptr, ptr, ptr, i32, ptr, ptr, i32, ptr, ptr, i32, i32, ptr, ptr, ptr, ptr, i32, ptr, i32, i32 }
%struct.ConvolveContext = type { ptr, %struct.FFFrameSync, [4 x [16 x ptr]], [4 x [16 x ptr]], [4 x ptr], [4 x ptr], [4 x i32], [4 x i32], [4 x i32], [4 x i32], [4 x i32], [4 x i32], [4 x i32], [4 x ptr], [4 x ptr], [4 x ptr], [4 x ptr], [4 x ptr], [4 x ptr], [4 x ptr], [4 x ptr], i32, i32, i32, float, i32, [4 x i32], ptr, ptr, ptr, ptr }
%struct.FFFrameSync = type { ptr, ptr, i32, %struct.AVRational, i64, ptr, ptr, i32, i32, i8, i8, ptr, i32, i32, i32, i32 }
%struct.AVRational = type { i32, i32 }
%struct.ThreadData = type { ptr, ptr, ptr, ptr, i32, i32 }
%struct.AVComplexFloat = type { float, float }

; Function Attrs: nounwind uwtable
define internal i32 @ifft_vertical(ptr noundef %0, ptr noundef %1, i32 noundef %2, i32 noundef %3) #0 {
  %5 = alloca ptr, align 8
  %6 = alloca ptr, align 8
  %7 = alloca i32, align 4
  %8 = alloca i32, align 4
  %9 = alloca ptr, align 8
  %10 = alloca ptr, align 8
  %11 = alloca ptr, align 8
  %12 = alloca ptr, align 8
  %13 = alloca ptr, align 8
  %14 = alloca i32, align 4
  %15 = alloca i32, align 4
  %16 = alloca i32, align 4
  %17 = alloca i32, align 4
  %18 = alloca i32, align 4
  %19 = alloca i32, align 4
  store ptr %0, ptr %5, align 8, !tbaa !4
  store ptr %1, ptr %6, align 8, !tbaa !92
  store i32 %2, ptr %7, align 4, !tbaa !37
  store i32 %3, ptr %8, align 4, !tbaa !37
  call void @llvm.lifetime.start.p0(i64 8, ptr %9) #10
  %20 = load ptr, ptr %5, align 8, !tbaa !4
  %21 = getelementptr inbounds nuw %struct.AVFilterContext, ptr %20, i32 0, i32 9
  %22 = load ptr, ptr %21, align 8, !tbaa !9
  store ptr %22, ptr %9, align 8, !tbaa !22
  call void @llvm.lifetime.start.p0(i64 8, ptr %10) #10
  %23 = load ptr, ptr %6, align 8, !tbaa !92
  store ptr %23, ptr %10, align 8, !tbaa !93
  call void @llvm.lifetime.start.p0(i64 8, ptr %11) #10
  %24 = load ptr, ptr %10, align 8, !tbaa !93
  %25 = getelementptr inbounds nuw %struct.ThreadData, ptr %24, i32 0, i32 2
  %26 = load ptr, ptr %25, align 8, !tbaa !88
  store ptr %26, ptr %11, align 8, !tbaa !63
  call void @llvm.lifetime.start.p0(i64 8, ptr %12) #10
  %27 = load ptr, ptr %10, align 8, !tbaa !93
  %28 = getelementptr inbounds nuw %struct.ThreadData, ptr %27, i32 0, i32 3
  %29 = load ptr, ptr %28, align 8, !tbaa !89
  store ptr %29, ptr %12, align 8, !tbaa !63
  call void @llvm.lifetime.start.p0(i64 8, ptr %13) #10
  %30 = load ptr, ptr %10, align 8, !tbaa !93
  %31 = getelementptr inbounds nuw %struct.ThreadData, ptr %30, i32 0, i32 1
  %32 = load ptr, ptr %31, align 8, !tbaa !87
  store ptr %32, ptr %13, align 8, !tbaa !63
  call void @llvm.lifetime.start.p0(i64 4, ptr %14) #10
  %33 = load ptr, ptr %10, align 8, !tbaa !93
  %34 = getelementptr inbounds nuw %struct.ThreadData, ptr %33, i32 0, i32 4
  %35 = load i32, ptr %34, align 8, !tbaa !83
  store i32 %35, ptr %14, align 4, !tbaa !37
  call void @llvm.lifetime.start.p0(i64 4, ptr %15) #10
  %36 = load ptr, ptr %10, align 8, !tbaa !93
  %37 = getelementptr inbounds nuw %struct.ThreadData, ptr %36, i32 0, i32 5
  %38 = load i32, ptr %37, align 4, !tbaa !85
  store i32 %38, ptr %15, align 4, !tbaa !37
  call void @llvm.lifetime.start.p0(i64 4, ptr %16) #10
  %39 = load i32, ptr %15, align 4, !tbaa !37
  %40 = load i32, ptr %7, align 4, !tbaa !37
  %41 = mul nsw i32 %39, %40
  %42 = load i32, ptr %8, align 4, !tbaa !37
  %43 = sdiv i32 %41, %42
  store i32 %43, ptr %16, align 4, !tbaa !37
  call void @llvm.lifetime.start.p0(i64 4, ptr %17) #10
  %44 = load i32, ptr %15, align 4, !tbaa !37
  %45 = load i32, ptr %7, align 4, !tbaa !37
  %46 = add nsw i32 %45, 1
  %47 = mul nsw i32 %44, %46
  %48 = load i32, ptr %8, align 4, !tbaa !37
  %49 = sdiv i32 %47, %48
  store i32 %49, ptr %17, align 4, !tbaa !37
  call void @llvm.lifetime.start.p0(i64 4, ptr %18) #10
  call void @llvm.lifetime.start.p0(i64 4, ptr %19) #10
  %50 = load i32, ptr %16, align 4, !tbaa !37
  store i32 %50, ptr %18, align 4, !tbaa !37
  br label %51

51:                                               ; preds = %130, %4
  %52 = load i32, ptr %18, align 4, !tbaa !37
  %53 = load i32, ptr %17, align 4, !tbaa !37
  %54 = icmp slt i32 %52, %53
  br i1 %54, label %55, label %133

55:                                               ; preds = %51
  %56 = load ptr, ptr %9, align 8, !tbaa !22
  %57 = getelementptr inbounds nuw %struct.ConvolveContext, ptr %56, i32 0, i32 5
  %58 = load i32, ptr %14, align 4, !tbaa !37
  %59 = sext i32 %58 to i64
  %60 = getelementptr inbounds [4 x ptr], ptr %57, i64 0, i64 %59
  %61 = load ptr, ptr %60, align 8, !tbaa !92
  %62 = load ptr, ptr %9, align 8, !tbaa !22
  %63 = getelementptr inbounds nuw %struct.ConvolveContext, ptr %62, i32 0, i32 3
  %64 = load i32, ptr %14, align 4, !tbaa !37
  %65 = sext i32 %64 to i64
  %66 = getelementptr inbounds [4 x [16 x ptr]], ptr %63, i64 0, i64 %65
  %67 = load i32, ptr %7, align 4, !tbaa !37
  %68 = sext i32 %67 to i64
  %69 = getelementptr inbounds [16 x ptr], ptr %66, i64 0, i64 %68
  %70 = load ptr, ptr %69, align 8, !tbaa !95
  %71 = load ptr, ptr %12, align 8, !tbaa !63
  %72 = load i32, ptr %18, align 4, !tbaa !37
  %73 = load i32, ptr %15, align 4, !tbaa !37
  %74 = mul nsw i32 %72, %73
  %75 = sext i32 %74 to i64
  %76 = getelementptr inbounds %struct.AVComplexFloat, ptr %71, i64 %75
  %77 = load ptr, ptr %13, align 8, !tbaa !63
  %78 = load i32, ptr %18, align 4, !tbaa !37
  %79 = load i32, ptr %15, align 4, !tbaa !37
  %80 = mul nsw i32 %78, %79
  %81 = sext i32 %80 to i64
  %82 = getelementptr inbounds %struct.AVComplexFloat, ptr %77, i64 %81
  call void %61(ptr noundef %70, ptr noundef %76, ptr noundef %82, i64 noundef 8)
  store i32 0, ptr %19, align 4, !tbaa !37
  br label %83

83:                                               ; preds = %126, %55
  %84 = load i32, ptr %19, align 4, !tbaa !37
  %85 = load i32, ptr %15, align 4, !tbaa !37
  %86 = icmp slt i32 %84, %85
  br i1 %86, label %87, label %129

87:                                               ; preds = %83
  %88 = load ptr, ptr %12, align 8, !tbaa !63
  %89 = load i32, ptr %18, align 4, !tbaa !37
  %90 = load i32, ptr %15, align 4, !tbaa !37
  %91 = mul nsw i32 %89, %90
  %92 = load i32, ptr %19, align 4, !tbaa !37
  %93 = add nsw i32 %91, %92
  %94 = sext i32 %93 to i64
  %95 = getelementptr inbounds %struct.AVComplexFloat, ptr %88, i64 %94
  %96 = getelementptr inbounds nuw %struct.AVComplexFloat, ptr %95, i32 0, i32 0
  %97 = load float, ptr %96, align 4, !tbaa !98
  %98 = load ptr, ptr %11, align 8, !tbaa !63
  %99 = load i32, ptr %19, align 4, !tbaa !37
  %100 = load i32, ptr %15, align 4, !tbaa !37
  %101 = mul nsw i32 %99, %100
  %102 = load i32, ptr %18, align 4, !tbaa !37
  %103 = add nsw i32 %101, %102
  %104 = sext i32 %103 to i64
  %105 = getelementptr inbounds %struct.AVComplexFloat, ptr %98, i64 %104
  %106 = getelementptr inbounds nuw %struct.AVComplexFloat, ptr %105, i32 0, i32 0
  store float %97, ptr %106, align 4, !tbaa !98
  %107 = load ptr, ptr %12, align 8, !tbaa !63
  %108 = load i32, ptr %18, align 4, !tbaa !37
  %109 = load i32, ptr %15, align 4, !tbaa !37
  %110 = mul nsw i32 %108, %109
  %111 = load i32, ptr %19, align 4, !tbaa !37
  %112 = add nsw i32 %110, %111
  %113 = sext i32 %112 to i64
  %114 = getelementptr inbounds %struct.AVComplexFloat, ptr %107, i64 %113
  %115 = getelementptr inbounds nuw %struct.AVComplexFloat, ptr %114, i32 0, i32 1
  %116 = load float, ptr %115, align 4, !tbaa !100
  %117 = load ptr, ptr %11, align 8, !tbaa !63
  %118 = load i32, ptr %19, align 4, !tbaa !37
  %119 = load i32, ptr %15, align 4, !tbaa !37
  %120 = mul nsw i32 %118, %119
  %121 = load i32, ptr %18, align 4, !tbaa !37
  %122 = add nsw i32 %120, %121
  %123 = sext i32 %122 to i64
  %124 = getelementptr inbounds %struct.AVComplexFloat, ptr %117, i64 %123
  %125 = getelementptr inbounds nuw %struct.AVComplexFloat, ptr %124, i32 0, i32 1
  store float %116, ptr %125, align 4, !tbaa !100
  br label %126

126:                                              ; preds = %87
  %127 = load i32, ptr %19, align 4, !tbaa !37
  %128 = add nsw i32 %127, 1
  store i32 %128, ptr %19, align 4, !tbaa !37
  br label %83, !llvm.loop !103

129:                                              ; preds = %83
  br label %130

130:                                              ; preds = %129
  %131 = load i32, ptr %18, align 4, !tbaa !37
  %132 = add nsw i32 %131, 1
  store i32 %132, ptr %18, align 4, !tbaa !37
  br label %51, !llvm.loop !104

133:                                              ; preds = %51
  call void @llvm.lifetime.end.p0(i64 4, ptr %19) #10
  call void @llvm.lifetime.end.p0(i64 4, ptr %18) #10
  call void @llvm.lifetime.end.p0(i64 4, ptr %17) #10
  call void @llvm.lifetime.end.p0(i64 4, ptr %16) #10
  call void @llvm.lifetime.end.p0(i64 4, ptr %15) #10
  call void @llvm.lifetime.end.p0(i64 4, ptr %14) #10
  call void @llvm.lifetime.end.p0(i64 8, ptr %13) #10
  call void @llvm.lifetime.end.p0(i64 8, ptr %12) #10
  call void @llvm.lifetime.end.p0(i64 8, ptr %11) #10
  call void @llvm.lifetime.end.p0(i64 8, ptr %10) #10
  call void @llvm.lifetime.end.p0(i64 8, ptr %9) #10
  ret i32 0
}