; Function Attrs: nounwind uwtable
define internal noundef i32 @ifft_vertical(ptr noundef readonly captures(none) %0, ptr noundef readonly captures(none) %1, i32 noundef %2, i32 noundef %3) #0 {
  %5 = getelementptr inbounds nuw i8, ptr %1, i64 16
  %6 = load ptr, ptr %5, align 8, !tbaa !78
  %7 = getelementptr inbounds nuw i8, ptr %1, i64 24
  %8 = load ptr, ptr %7, align 8, !tbaa !79
  %9 = getelementptr inbounds nuw i8, ptr %1, i64 8
  %10 = load ptr, ptr %9, align 8, !tbaa !77
  %11 = getelementptr inbounds nuw i8, ptr %1, i64 36
  %12 = load i32, ptr %11, align 4, !tbaa !75
  %.fr53 = freeze i32 %12
  %13 = mul nsw i32 %.fr53, %2
  %14 = sdiv i32 %13, %3
  %15 = add nsw i32 %2, 1
  %16 = mul nsw i32 %.fr53, %15
  %17 = sdiv i32 %16, %3
  %18 = icmp slt i32 %14, %17
  br i1 %18, label %.lr.ph51, label %._crit_edge52

.lr.ph51:                                         ; preds = %4
  %19 = getelementptr inbounds nuw i8, ptr %1, i64 32
  %20 = load i32, ptr %19, align 8, !tbaa !73
  %21 = getelementptr inbounds nuw i8, ptr %0, i64 72
  %22 = load ptr, ptr %21, align 8, !tbaa !4
  %23 = getelementptr inbounds nuw i8, ptr %22, i64 1160
  %24 = sext i32 %20 to i64
  %25 = getelementptr inbounds [4 x ptr], ptr %23, i64 0, i64 %24
  %26 = getelementptr inbounds nuw i8, ptr %22, i64 616
  %27 = sext i32 %2 to i64
  %28 = getelementptr inbounds [4 x [16 x ptr]], ptr %26, i64 0, i64 %24, i64 %27
  %29 = icmp sgt i32 %.fr53, 0
  br i1 %29, label %.lr.ph.us.preheader, label %.lr.ph51.split.preheader

.lr.ph51.split.preheader:                         ; preds = %.lr.ph51
  %30 = sext i32 %14 to i64
  %31 = sext i32 %.fr53 to i64
  br label %.lr.ph51.split

.lr.ph.us.preheader:                              ; preds = %.lr.ph51
  %32 = zext nneg i32 %.fr53 to i64
  %33 = sext i32 %14 to i64
  %wide.trip.count = zext nneg i32 %.fr53 to i64
  br label %.lr.ph.us

.lr.ph.us:                                        ; preds = %.lr.ph.us.preheader, %._crit_edge.us
  %indvars.iv60 = phi i64 [ %33, %.lr.ph.us.preheader ], [ %indvars.iv.next61, %._crit_edge.us ]
  %34 = load ptr, ptr %25, align 8, !tbaa !82
  %35 = load ptr, ptr %28, align 8, !tbaa !83
  %36 = mul nsw i64 %indvars.iv60, %32
  %37 = getelementptr inbounds %struct.AVComplexFloat, ptr %8, i64 %36
  %38 = getelementptr inbounds %struct.AVComplexFloat, ptr %10, i64 %36
  tail call void %34(ptr noundef %35, ptr noundef %37, ptr noundef %38, i64 noundef 8) #14
  %invariant.gep = getelementptr %struct.AVComplexFloat, ptr %8, i64 %36
  %invariant.gep66 = getelementptr %struct.AVComplexFloat, ptr %6, i64 %indvars.iv60
  br label %39

39:                                               ; preds = %.lr.ph.us, %39
  %indvars.iv56 = phi i64 [ 0, %.lr.ph.us ], [ %indvars.iv.next57, %39 ]
  %gep = getelementptr %struct.AVComplexFloat, ptr %invariant.gep, i64 %indvars.iv56
  %40 = load float, ptr %gep, align 4, !tbaa !86
  %41 = mul nuw nsw i64 %indvars.iv56, %32
  %gep67 = getelementptr %struct.AVComplexFloat, ptr %invariant.gep66, i64 %41
  store float %40, ptr %gep67, align 4, !tbaa !86
  %42 = getelementptr inbounds nuw i8, ptr %gep, i64 4
  %43 = load float, ptr %42, align 4, !tbaa !88
  %44 = getelementptr inbounds nuw i8, ptr %gep67, i64 4
  store float %43, ptr %44, align 4, !tbaa !88
  %indvars.iv.next57 = add nuw nsw i64 %indvars.iv56, 1
  %exitcond59.not = icmp eq i64 %indvars.iv.next57, %wide.trip.count
  br i1 %exitcond59.not, label %._crit_edge.us, label %39, !llvm.loop !91

._crit_edge.us:                                   ; preds = %39
  %indvars.iv.next61 = add nsw i64 %indvars.iv60, 1
  %lftr.wideiv63 = trunc i64 %indvars.iv.next61 to i32
  %exitcond64.not = icmp eq i32 %17, %lftr.wideiv63
  br i1 %exitcond64.not, label %._crit_edge52, label %.lr.ph.us, !llvm.loop !92

.lr.ph51.split:                                   ; preds = %.lr.ph51.split.preheader, %.lr.ph51.split
  %indvars.iv = phi i64 [ %30, %.lr.ph51.split.preheader ], [ %indvars.iv.next, %.lr.ph51.split ]
  %45 = load ptr, ptr %25, align 8, !tbaa !82
  %46 = load ptr, ptr %28, align 8, !tbaa !83
  %47 = mul nsw i64 %indvars.iv, %31
  %48 = getelementptr inbounds %struct.AVComplexFloat, ptr %8, i64 %47
  %49 = getelementptr inbounds %struct.AVComplexFloat, ptr %10, i64 %47
  tail call void %45(ptr noundef %46, ptr noundef %48, ptr noundef %49, i64 noundef 8) #14
  %indvars.iv.next = add nsw i64 %indvars.iv, 1
  %lftr.wideiv = trunc i64 %indvars.iv.next to i32
  %exitcond.not = icmp eq i32 %17, %lftr.wideiv
  br i1 %exitcond.not, label %._crit_edge52, label %.lr.ph51.split, !llvm.loop !92

._crit_edge52:                                    ; preds = %.lr.ph51.split, %._crit_edge.us, %4
  ret i32 0
}